ccollections
defaultdict
p0
(c__builtin__
int
p1
tp2
Rp3
(S'test'
p4
S'hi'
p5
tp6
I1
s(S'this'
p7
g4
tp8
I1
s(S'test'
p9
S'hello'
p10
tp11
I4
s(S'hello'
p12
g12
tp13
I1
s(S'hi'
p14
S'hello'
p15
tp16
I1
s(S'is'
p17
S'hi'
p18
tp19
I1
s(S'this'
p20
S'is'
p21
tp22
I1
s(S'this'
p23
g18
tp24
I1
s.